target datalayout = "e-m:e-p270:32:32-p271:32:32-p272:64:64-i64:64-i128:128-f80:128-n8:16:32:64-S128"
target triple = "x86_64-pc-linux-gnu"

%struct._lv_matrix_t = type { [3 x [3 x float]] }

; Function Attrs: nounwind uwtable
define zeroext i1 @lv_matrix_is_identity_or_translation(ptr noundef %0) #0 {
  %2 = alloca ptr, align 8
  store ptr %0, ptr %2, align 8, !tbaa !3
  %3 = load ptr, ptr %2, align 8, !tbaa !3
  %4 = getelementptr inbounds nuw %struct._lv_matrix_t, ptr %3, i32 0, i32 0
  %5 = getelementptr inbounds [3 x [3 x float]], ptr %4, i64 0, i64 0
  %6 = getelementptr inbounds [3 x float], ptr %5, i64 0, i64 0
  %7 = load float, ptr %6, align 4, !tbaa !7
  %8 = fcmp oeq float %7, 1.000000e+00
  br i1 %8, label %9, label %51

9:                                                ; preds = %1
  %10 = load ptr, ptr %2, align 8, !tbaa !3
  %11 = getelementptr inbounds nuw %struct._lv_matrix_t, ptr %10, i32 0, i32 0
  %12 = getelementptr inbounds [3 x [3 x float]], ptr %11, i64 0, i64 0
  %13 = getelementptr inbounds [3 x float], ptr %12, i64 0, i64 1
  %14 = load float, ptr %13, align 4, !tbaa !7
  %15 = fcmp oeq float %14, 0.000000e+00
  br i1 %15, label %16, label %51

16:                                               ; preds = %9
  %17 = load ptr, ptr %2, align 8, !tbaa !3
  %18 = getelementptr inbounds nuw %struct._lv_matrix_t, ptr %17, i32 0, i32 0
  %19 = getelementptr inbounds [3 x [3 x float]], ptr %18, i64 0, i64 1
  %20 = getelementptr inbounds [3 x float], ptr %19, i64 0, i64 0
  %21 = load float, ptr %20, align 4, !tbaa !7
  %22 = fcmp oeq float %21, 0.000000e+00
  br i1 %22, label %23, label %51

23:                                               ; preds = %16
  %24 = load ptr, ptr %2, align 8, !tbaa !3
  %25 = getelementptr inbounds nuw %struct._lv_matrix_t, ptr %24, i32 0, i32 0
  %26 = getelementptr inbounds [3 x [3 x float]], ptr %25, i64 0, i64 1
  %27 = getelementptr inbounds [3 x float], ptr %26, i64 0, i64 1
  %28 = load float, ptr %27, align 4, !tbaa !7
  %29 = fcmp oeq float %28, 1.000000e+00
  br i1 %29, label %30, label %51

30:                                               ; preds = %23
  %31 = load ptr, ptr %2, align 8, !tbaa !3
  %32 = getelementptr inbounds nuw %struct._lv_matrix_t, ptr %31, i32 0, i32 0
  %33 = getelementptr inbounds [3 x [3 x float]], ptr %32, i64 0, i64 2
  %34 = getelementptr inbounds [3 x float], ptr %33, i64 0, i64 0
  %35 = load float, ptr %34, align 4, !tbaa !7
  %36 = fcmp oeq float %35, 0.000000e+00
  br i1 %36, label %37, label %51

37:                                               ; preds = %30
  %38 = load ptr, ptr %2, align 8, !tbaa !3
  %39 = getelementptr inbounds nuw %struct._lv_matrix_t, ptr %38, i32 0, i32 0
  %40 = getelementptr inbounds [3 x [3 x float]], ptr %39, i64 0, i64 2
  %41 = getelementptr inbounds [3 x float], ptr %40, i64 0, i64 1
  %42 = load float, ptr %41, align 4, !tbaa !7
  %43 = fcmp oeq float %42, 0.000000e+00
  br i1 %43, label %44, label %51

44:                                               ; preds = %37
  %45 = load ptr, ptr %2, align 8, !tbaa !3
  %46 = getelementptr inbounds nuw %struct._lv_matrix_t, ptr %45, i32 0, i32 0
  %47 = getelementptr inbounds [3 x [3 x float]], ptr %46, i64 0, i64 2
  %48 = getelementptr inbounds [3 x float], ptr %47, i64 0, i64 2
  %49 = load float, ptr %48, align 4, !tbaa !7
  %50 = fcmp oeq float %49, 1.000000e+00
  br label %51

51:                                               ; preds = %44, %37, %30, %23, %16, %9, %1
  %52 = phi i1 [ false, %37 ], [ false, %30 ], [ false, %23 ], [ false, %16 ], [ false, %9 ], [ false, %1 ], [ %50, %44 ]
  ret i1 %52
}