; Function Attrs: mustprogress nofree norecurse nosync nounwind willreturn memory(argmem: read) uwtable
define zeroext i1 @lv_matrix_is_identity_or_translation(ptr nocapture noundef readonly %0) local_unnamed_addr #2 {
  %2 = load float, ptr %0, align 4, !tbaa !3
  %3 = fcmp oeq float %2, 1.000000e+00
  br i1 %3, label %4, label %28

4:                                                ; preds = %1
  %5 = getelementptr inbounds i8, ptr %0, i64 4
  %6 = load float, ptr %5, align 4, !tbaa !3
  %7 = fcmp oeq float %6, 0.000000e+00
  br i1 %7, label %8, label %28

8:                                                ; preds = %4
  %9 = getelementptr inbounds i8, ptr %0, i64 12
  %10 = load float, ptr %9, align 4, !tbaa !3
  %11 = fcmp oeq float %10, 0.000000e+00
  br i1 %11, label %12, label %28

12:                                               ; preds = %8
  %13 = getelementptr inbounds i8, ptr %0, i64 16
  %14 = load float, ptr %13, align 4, !tbaa !3
  %15 = fcmp oeq float %14, 1.000000e+00
  br i1 %15, label %16, label %28

16:                                               ; preds = %12
  %17 = getelementptr inbounds i8, ptr %0, i64 24
  %18 = load float, ptr %17, align 4, !tbaa !3
  %19 = fcmp oeq float %18, 0.000000e+00
  br i1 %19, label %20, label %28

20:                                               ; preds = %16
  %21 = getelementptr inbounds i8, ptr %0, i64 28
  %22 = load float, ptr %21, align 4, !tbaa !3
  %23 = fcmp oeq float %22, 0.000000e+00
  br i1 %23, label %24, label %28

24:                                               ; preds = %20
  %25 = getelementptr inbounds i8, ptr %0, i64 32
  %26 = load float, ptr %25, align 4, !tbaa !3
  %27 = fcmp oeq float %26, 1.000000e+00
  br label %28

28:                                               ; preds = %24, %20, %16, %12, %8, %4, %1
  %29 = phi i1 [ false, %20 ], [ false, %16 ], [ false, %12 ], [ false, %8 ], [ false, %4 ], [ false, %1 ], [ %27, %24 ]
  ret i1 %29
}